; ModuleID = '58/65.c'
source_filename = "58/65.c"
target datalayout = "e-m:e-p270:32:32-p271:32:32-p272:64:64-i64:64-f80:128-n8:16:32:64-S128"
target triple = "x86_64-pc-linux-gnu"

@.str = private unnamed_addr constant [4 x i8] c"%d\0A\00", align 1

; Function Attrs: noinline nounwind uwtable
define dso_local i32 @main() #0 {
  %1 = alloca i32, align 4
  %2 = alloca i32, align 4
  %3 = alloca i32*, align 8
  %4 = alloca i32, align 4
  %5 = alloca i32, align 4
  %6 = alloca i8*, align 8
  %7 = alloca i8*, align 8
  store i32 0, i32* %1, align 4
  %8 = call i32 (i8*, ...) @__isoc99_scanf(i8* getelementptr inbounds ([4 x i8], [4 x i8]* @.str, i64 0, i64 0), i32* %2)
  %9 = load i32, i32* %2, align 4
  %10 = sext i32 %9 to i64
  %11 = mul i64 %10, 4
  %12 = call noalias i8* @malloc(i64 %11) #4
  %13 = bitcast i8* %12 to i32*
  store i32* %13, i32** %3, align 8
  store i32 0, i32* %4, align 4
  br label %14

14:                                               ; preds = %101, %0
  %15 = load i32, i32* %4, align 4
  %16 = load i32, i32* %2, align 4
  %17 = icmp slt i32 %15, %16
  br i1 %17, label %18, label %104

18:                                               ; preds = %14
  %19 = call noalias i8* @malloc(i64 80) #4
  store i8* %19, i8** %6, align 8
  %20 = load i8*, i8** %6, align 8
  %21 = call i32 (i8*, ...) bitcast (i32 (...)* @gets to i32 (i8*, ...)*)(i8* %20)
  %22 = load i8*, i8** %6, align 8
  store i8* %22, i8** %7, align 8
  %23 = load i8*, i8** %7, align 8
  %24 = load i8, i8* %23, align 1
  %25 = sext i8 %24 to i32
  %26 = icmp eq i32 %25, 95
  br i1 %26, label %33, label %27

27:                                               ; preds = %18
  %28 = load i8*, i8** %7, align 8
  %29 = load i8, i8* %28, align 1
  %30 = sext i8 %29 to i32
  %31 = call i32 @isalpha(i32 %30) #5
  %32 = icmp ne i32 %31, 0
  br i1 %32, label %33, label %95

33:                                               ; preds = %27, %18
  store i32 0, i32* %5, align 4
  br label %34

34:                                               ; preds = %74, %33
  %35 = load i8*, i8** %7, align 8
  %36 = load i32, i32* %5, align 4
  %37 = sext i32 %36 to i64
  %38 = getelementptr inbounds i8, i8* %35, i64 %37
  %39 = load i8, i8* %38, align 1
  %40 = sext i8 %39 to i32
  %41 = icmp ne i32 %40, 0
  br i1 %41, label %42, label %77

42:                                               ; preds = %34
  %43 = load i8*, i8** %7, align 8
  %44 = load i32, i32* %5, align 4
  %45 = sext i32 %44 to i64
  %46 = getelementptr inbounds i8, i8* %43, i64 %45
  %47 = load i8, i8* %46, align 1
  %48 = sext i8 %47 to i32
  %49 = call i32 @isalpha(i32 %48) #5
  %50 = icmp eq i32 %49, 0
  br i1 %50, label %51, label %73

51:                                               ; preds = %42
  %52 = load i8*, i8** %7, align 8
  %53 = load i32, i32* %5, align 4
  %54 = sext i32 %53 to i64
  %55 = getelementptr inbounds i8, i8* %52, i64 %54
  %56 = load i8, i8* %55, align 1
  %57 = sext i8 %56 to i32
  %58 = call i32 @isdigit(i32 %57) #5
  %59 = icmp eq i32 %58, 0
  br i1 %59, label %60, label %73

60:                                               ; preds = %51
  %61 = load i8*, i8** %7, align 8
  %62 = load i32, i32* %5, align 4
  %63 = sext i32 %62 to i64
  %64 = getelementptr inbounds i8, i8* %61, i64 %63
  %65 = load i8, i8* %64, align 1
  %66 = sext i8 %65 to i32
  %67 = icmp ne i32 %66, 95
  br i1 %67, label %68, label %73

68:                                               ; preds = %60
  %69 = load i32*, i32** %3, align 8
  %70 = load i32, i32* %4, align 4
  %71 = sext i32 %70 to i64
  %72 = getelementptr inbounds i32, i32* %69, i64 %71
  store i32 3, i32* %72, align 4
  br label %73

73:                                               ; preds = %68, %60, %51, %42
  br label %74

74:                                               ; preds = %73
  %75 = load i32, i32* %5, align 4
  %76 = add nsw i32 %75, 1
  store i32 %76, i32* %5, align 4
  br label %34

77:                                               ; preds = %34
  %78 = load i32*, i32** %3, align 8
  %79 = load i32, i32* %4, align 4
  %80 = sext i32 %79 to i64
  %81 = getelementptr inbounds i32, i32* %78, i64 %80
  %82 = load i32, i32* %81, align 4
  %83 = icmp eq i32 %82, 3
  br i1 %83, label %84, label %89

84:                                               ; preds = %77
  %85 = load i32*, i32** %3, align 8
  %86 = load i32, i32* %4, align 4
  %87 = sext i32 %86 to i64
  %88 = getelementptr inbounds i32, i32* %85, i64 %87
  store i32 0, i32* %88, align 4
  br label %94

89:                                               ; preds = %77
  %90 = load i32*, i32** %3, align 8
  %91 = load i32, i32* %4, align 4
  %92 = sext i32 %91 to i64
  %93 = getelementptr inbounds i32, i32* %90, i64 %92
  store i32 1, i32* %93, align 4
  br label %94

94:                                               ; preds = %89, %84
  br label %100

95:                                               ; preds = %27
  %96 = load i32*, i32** %3, align 8
  %97 = load i32, i32* %4, align 4
  %98 = sext i32 %97 to i64
  %99 = getelementptr inbounds i32, i32* %96, i64 %98
  store i32 0, i32* %99, align 4
  br label %100

100:                                              ; preds = %95, %94
  br label %101

101:                                              ; preds = %100
  %102 = load i32, i32* %4, align 4
  %103 = add nsw i32 %102, 1
  store i32 %103, i32* %4, align 4
  br label %14

104:                                              ; preds = %14
  store i32 0, i32* %4, align 4
  br label %105

105:                                              ; preds = %116, %104
  %106 = load i32, i32* %4, align 4
  %107 = load i32, i32* %2, align 4
  %108 = icmp slt i32 %106, %107
  br i1 %108, label %109, label %119

109:                                              ; preds = %105
  %110 = load i32*, i32** %3, align 8
  %111 = load i32, i32* %4, align 4
  %112 = sext i32 %111 to i64
  %113 = getelementptr inbounds i32, i32* %110, i64 %112
  %114 = load i32, i32* %113, align 4
  %115 = call i32 (i8*, ...) @printf(i8* getelementptr inbounds ([4 x i8], [4 x i8]* @.str, i64 0, i64 0), i32 %114)
  br label %116

116:                                              ; preds = %109
  %117 = load i32, i32* %4, align 4
  %118 = add nsw i32 %117, 1
  store i32 %118, i32* %4, align 4
  br label %105

119:                                              ; preds = %105
  %120 = load i32, i32* %1, align 4
  ret i32 %120
}

declare dso_local i32 @__isoc99_scanf(i8*, ...) #1

; Function Attrs: nounwind
declare dso_local noalias i8* @malloc(i64) #2

declare dso_local i32 @gets(...) #1

; Function Attrs: nounwind readonly
declare dso_local i32 @isalpha(i32) #3

; Function Attrs: nounwind readonly
declare dso_local i32 @isdigit(i32) #3

declare dso_local i32 @printf(i8*, ...) #1


!llvm.module.flags = !{!0}
!llvm.ident = !{!1}

!0 = !{i32 1, !"wchar_size", i32 4}
!1 = !{!"clang version 10.0.0-4ubuntu1 "}
